; Function Attrs: mustprogress uwtable
define internal fastcc noundef i32 @_ZL13stbi__get16beP13stbi__context(ptr noundef %s) unnamed_addr #3 {
entry:
  %img_buffer.i = getelementptr inbounds i8, ptr %s, i64 192
  %0 = load ptr, ptr %img_buffer.i, align 8
  %img_buffer_end.i = getelementptr inbounds i8, ptr %s, i64 200
  %1 = load ptr, ptr %img_buffer_end.i, align 8
  %cmp.i = icmp ult ptr %0, %1
  br i1 %cmp.i, label %if.then.i, label %if.end.i

if.then.i:                                        ; preds = %entry
  %incdec.ptr.i = getelementptr inbounds i8, ptr %0, i64 1
  store ptr %incdec.ptr.i, ptr %img_buffer.i, align 8
  %2 = load i8, ptr %0, align 1
  br label %_ZL10stbi__get8P13stbi__context.exit

if.end.i:                                         ; preds = %entry
  %read_from_callbacks.i = getelementptr inbounds i8, ptr %s, i64 48
  %3 = load i32, ptr %read_from_callbacks.i, align 8
  %tobool.not.i = icmp eq i32 %3, 0
  br i1 %tobool.not.i, label %_ZL10stbi__get8P13stbi__context.exit, label %if.then2.i

if.then2.i:                                       ; preds = %if.end.i
  %io.i.i = getelementptr inbounds i8, ptr %s, i64 16
  %4 = load ptr, ptr %io.i.i, align 8
  %io_user_data.i.i = getelementptr inbounds i8, ptr %s, i64 40
  %5 = load ptr, ptr %io_user_data.i.i, align 8
  %buffer_start.i.i = getelementptr inbounds i8, ptr %s, i64 56
  %buflen.i.i = getelementptr inbounds i8, ptr %s, i64 52
  %6 = load i32, ptr %buflen.i.i, align 4
  %call.i.i = tail call noundef i32 %4(ptr noundef %5, ptr noundef nonnull %buffer_start.i.i, i32 noundef %6)
  %7 = load ptr, ptr %img_buffer.i, align 8
  %img_buffer_original.i.i = getelementptr inbounds i8, ptr %s, i64 208
  %8 = load ptr, ptr %img_buffer_original.i.i, align 8
  %sub.ptr.lhs.cast.i.i = ptrtoint ptr %7 to i64
  %sub.ptr.rhs.cast.i.i = ptrtoint ptr %8 to i64
  %sub.ptr.sub.i.i = sub i64 %sub.ptr.lhs.cast.i.i, %sub.ptr.rhs.cast.i.i
  %conv.i.i = trunc i64 %sub.ptr.sub.i.i to i32
  %callback_already_read.i.i = getelementptr inbounds i8, ptr %s, i64 184
  %9 = load i32, ptr %callback_already_read.i.i, align 8
  %add.i.i = add nsw i32 %9, %conv.i.i
  store i32 %add.i.i, ptr %callback_already_read.i.i, align 8
  %cmp.i.i = icmp eq i32 %call.i.i, 0
  br i1 %cmp.i.i, label %if.then.i.i, label %if.else.i.i

if.then.i.i:                                      ; preds = %if.then2.i
  store i32 0, ptr %read_from_callbacks.i, align 8
  %add.ptr.i.i = getelementptr inbounds i8, ptr %s, i64 57
  store i8 0, ptr %buffer_start.i.i, align 1
  br label %_ZL19stbi__refill_bufferP13stbi__context.exit.i

if.else.i.i:                                      ; preds = %if.then2.i
  %idx.ext.i.i = sext i32 %call.i.i to i64
  %add.ptr12.i.i = getelementptr inbounds i8, ptr %buffer_start.i.i, i64 %idx.ext.i.i
  %.pre.i = load i8, ptr %buffer_start.i.i, align 1
  br label %_ZL19stbi__refill_bufferP13stbi__context.exit.i

_ZL19stbi__refill_bufferP13stbi__context.exit.i:  ; preds = %if.else.i.i, %if.then.i.i
  %10 = phi i8 [ 0, %if.then.i.i ], [ %.pre.i, %if.else.i.i ]
  %add.ptr12.sink.i.i = phi ptr [ %add.ptr.i.i, %if.then.i.i ], [ %add.ptr12.i.i, %if.else.i.i ]
  store ptr %add.ptr12.sink.i.i, ptr %img_buffer_end.i, align 8
  %incdec.ptr4.i = getelementptr inbounds i8, ptr %s, i64 57
  store ptr %incdec.ptr4.i, ptr %img_buffer.i, align 8
  br label %_ZL10stbi__get8P13stbi__context.exit

_ZL10stbi__get8P13stbi__context.exit:             ; preds = %if.then.i, %if.end.i, %_ZL19stbi__refill_bufferP13stbi__context.exit.i
  %11 = phi ptr [ %1, %if.then.i ], [ %add.ptr12.sink.i.i, %_ZL19stbi__refill_bufferP13stbi__context.exit.i ], [ %1, %if.end.i ]
  %12 = phi ptr [ %incdec.ptr.i, %if.then.i ], [ %incdec.ptr4.i, %_ZL19stbi__refill_bufferP13stbi__context.exit.i ], [ %0, %if.end.i ]
  %retval.0.i = phi i8 [ %2, %if.then.i ], [ %10, %_ZL19stbi__refill_bufferP13stbi__context.exit.i ], [ 0, %if.end.i ]
  %cmp.i4 = icmp ult ptr %12, %11
  br i1 %cmp.i4, label %if.then.i32, label %if.end.i5

if.then.i32:                                      ; preds = %_ZL10stbi__get8P13stbi__context.exit
  %incdec.ptr.i33 = getelementptr inbounds i8, ptr %12, i64 1
  store ptr %incdec.ptr.i33, ptr %img_buffer.i, align 8
  %13 = load i8, ptr %12, align 1
  br label %_ZL10stbi__get8P13stbi__context.exit34

if.end.i5:                                        ; preds = %_ZL10stbi__get8P13stbi__context.exit
  %read_from_callbacks.i6 = getelementptr inbounds i8, ptr %s, i64 48
  %14 = load i32, ptr %read_from_callbacks.i6, align 8
  %tobool.not.i7 = icmp eq i32 %14, 0
  br i1 %tobool.not.i7, label %_ZL10stbi__get8P13stbi__context.exit34, label %if.then2.i8

if.then2.i8:                                      ; preds = %if.end.i5
  %io.i.i9 = getelementptr inbounds i8, ptr %s, i64 16
  %15 = load ptr, ptr %io.i.i9, align 8
  %io_user_data.i.i10 = getelementptr inbounds i8, ptr %s, i64 40
  %16 = load ptr, ptr %io_user_data.i.i10, align 8
  %buffer_start.i.i11 = getelementptr inbounds i8, ptr %s, i64 56
  %buflen.i.i12 = getelementptr inbounds i8, ptr %s, i64 52
  %17 = load i32, ptr %buflen.i.i12, align 4
  %call.i.i13 = tail call noundef i32 %15(ptr noundef %16, ptr noundef nonnull %buffer_start.i.i11, i32 noundef %17)
  %18 = load ptr, ptr %img_buffer.i, align 8
  %img_buffer_original.i.i14 = getelementptr inbounds i8, ptr %s, i64 208
  %19 = load ptr, ptr %img_buffer_original.i.i14, align 8
  %sub.ptr.lhs.cast.i.i15 = ptrtoint ptr %18 to i64
  %sub.ptr.rhs.cast.i.i16 = ptrtoint ptr %19 to i64
  %sub.ptr.sub.i.i17 = sub i64 %sub.ptr.lhs.cast.i.i15, %sub.ptr.rhs.cast.i.i16
  %conv.i.i18 = trunc i64 %sub.ptr.sub.i.i17 to i32
  %callback_already_read.i.i19 = getelementptr inbounds i8, ptr %s, i64 184
  %20 = load i32, ptr %callback_already_read.i.i19, align 8
  %add.i.i20 = add nsw i32 %20, %conv.i.i18
  store i32 %add.i.i20, ptr %callback_already_read.i.i19, align 8
  %cmp.i.i21 = icmp eq i32 %call.i.i13, 0
  br i1 %cmp.i.i21, label %if.then.i.i30, label %if.else.i.i22

if.then.i.i30:                                    ; preds = %if.then2.i8
  store i32 0, ptr %read_from_callbacks.i6, align 8
  %add.ptr.i.i31 = getelementptr inbounds i8, ptr %s, i64 57
  store i8 0, ptr %buffer_start.i.i11, align 1
  br label %_ZL19stbi__refill_bufferP13stbi__context.exit.i26

if.else.i.i22:                                    ; preds = %if.then2.i8
  %idx.ext.i.i23 = sext i32 %call.i.i13 to i64
  %add.ptr12.i.i24 = getelementptr inbounds i8, ptr %buffer_start.i.i11, i64 %idx.ext.i.i23
  %.pre.i25 = load i8, ptr %buffer_start.i.i11, align 1
  br label %_ZL19stbi__refill_bufferP13stbi__context.exit.i26

_ZL19stbi__refill_bufferP13stbi__context.exit.i26: ; preds = %if.else.i.i22, %if.then.i.i30
  %21 = phi i8 [ 0, %if.then.i.i30 ], [ %.pre.i25, %if.else.i.i22 ]
  %add.ptr12.sink.i.i27 = phi ptr [ %add.ptr.i.i31, %if.then.i.i30 ], [ %add.ptr12.i.i24, %if.else.i.i22 ]
  store ptr %add.ptr12.sink.i.i27, ptr %img_buffer_end.i, align 8
  %incdec.ptr4.i28 = getelementptr inbounds i8, ptr %s, i64 57
  store ptr %incdec.ptr4.i28, ptr %img_buffer.i, align 8
  br label %_ZL10stbi__get8P13stbi__context.exit34

_ZL10stbi__get8P13stbi__context.exit34:           ; preds = %if.then.i32, %if.end.i5, %_ZL19stbi__refill_bufferP13stbi__context.exit.i26
  %retval.0.i29 = phi i8 [ %13, %if.then.i32 ], [ %21, %_ZL19stbi__refill_bufferP13stbi__context.exit.i26 ], [ 0, %if.end.i5 ]
  %conv = zext i8 %retval.0.i to i32
  %shl = shl nuw nsw i32 %conv, 8
  %conv2 = zext i8 %retval.0.i29 to i32
  %add = or disjoint i32 %shl, %conv2
  ret i32 %add
}